target datalayout = "e-m:e-p270:32:32-p271:32:32-p272:64:64-i64:64-i128:128-f80:128-n8:16:32:64-S128"
target triple = "x86_64-pc-linux-gnu"

%struct.reassembly_table = type { ptr, ptr, ptr, ptr, ptr }
%struct.reassembly_table_functions = type { ptr, ptr, ptr, ptr, ptr, ptr }

@proto_register_netbios.ett = internal global [6 x ptr] [ptr @ett_netb, ptr @ett_netb_name, ptr @ett_netb_flags, ptr @ett_netb_status, ptr @ett_netb_fragments, ptr @ett_netb_fragment], align 16
@.str.103 = private unnamed_addr constant [8 x i8] c"NetBIOS\00", align 1
@.str.104 = private unnamed_addr constant [8 x i8] c"netbios\00", align 1
@proto_netbios = internal global i32 0, align 4
@netbios_handle = internal global ptr null, align 8
@netbios_cap_handle = internal global ptr null, align 8
@.str.105 = private unnamed_addr constant [16 x i8] c"NetBIOS payload\00", align 1
@netbios_heur_subdissector_list = internal global ptr null, align 8
@.str.106 = private unnamed_addr constant [11 x i8] c"defragment\00", align 1
@.str.107 = private unnamed_addr constant [64 x i8] c"Reassemble fragmented NetBIOS messages spanning multiple frames\00", align 1
@.str.108 = private unnamed_addr constant [82 x i8] c"Whether the NetBIOS dissector should defragment messages spanning multiple frames\00", align 1
@netbios_defragment = internal global i32 1, align 4
@netbios_reassembly_table = internal global %struct.reassembly_table zeroinitializer, align 8
@addresses_reassembly_table_functions = external constant %struct.reassembly_table_functions, align 8

; Function Attrs: nounwind uwtable
define hidden void @proto_register_netbios() #0 {
  %1 = alloca ptr, align 8
  %2 = alloca ptr, align 8
  %3 = call i32 @proto_register_protocol(ptr noundef @.str.103, ptr noundef @.str.103, ptr noundef @.str.104)
  store i32 %3, ptr @proto_netbios, align 4
  call void @proto_register_subtree_array(ptr noundef @proto_register_netbios.ett, i32 noundef 6)
  %4 = load i32, ptr @proto_netbios, align 4
  call void @proto_register_field_array(i32 noundef %4, ptr noundef @proto_register_netbios.hf_netb, i32 noundef 46)
  %5 = load i32, ptr @proto_netbios, align 4
  %6 = call ptr @expert_register_protocol(i32 noundef %5)
  store ptr %6, ptr %2, align 8
  %7 = load ptr, ptr %2, align 8
  call void @expert_register_field_array(ptr noundef %7, ptr noundef @proto_register_netbios.ei, i32 noundef 1)
  %8 = load i32, ptr @proto_netbios, align 4
  %9 = call ptr @register_dissector(ptr noundef @.str.104, ptr noundef @dissect_netbios, i32 noundef %8)
  store ptr %9, ptr @netbios_handle, align 8
  %10 = load i32, ptr @proto_netbios, align 4
  %11 = call ptr @register_capture_dissector(ptr noundef @.str.104, ptr noundef @capture_netbios, i32 noundef %10)
  store ptr %11, ptr @netbios_cap_handle, align 8
  %12 = load i32, ptr @proto_netbios, align 4
  %13 = call ptr @register_heur_dissector_list_with_description(ptr noundef @.str.104, ptr noundef @.str.105, i32 noundef %12)
  store ptr %13, ptr @netbios_heur_subdissector_list, align 8
  %14 = load i32, ptr @proto_netbios, align 4
  %15 = call ptr @prefs_register_protocol(i32 noundef %14, ptr noundef null)
  store ptr %15, ptr %1, align 8
  %16 = load ptr, ptr %1, align 8
  call void @prefs_register_bool_preference(ptr noundef %16, ptr noundef @.str.106, ptr noundef @.str.107, ptr noundef @.str.108, ptr noundef @netbios_defragment)
  call void @reassembly_table_register(ptr noundef @netbios_reassembly_table, ptr noundef @addresses_reassembly_table_functions)
  ret void
}