; Function Attrs: nounwind uwtable
define hidden void @proto_register_netbios() local_unnamed_addr #1 {
  %1 = tail call i32 @proto_register_protocol(ptr noundef nonnull @.str.103, ptr noundef nonnull @.str.103, ptr noundef nonnull @.str.104) #6
  store i32 %1, ptr @proto_netbios, align 4
  tail call void @proto_register_subtree_array(ptr noundef nonnull @proto_register_netbios.ett, i32 noundef 6) #6
  %2 = load i32, ptr @proto_netbios, align 4
  tail call void @proto_register_field_array(i32 noundef %2, ptr noundef nonnull @proto_register_netbios.hf_netb, i32 noundef 46) #6
  %3 = load i32, ptr @proto_netbios, align 4
  %4 = tail call ptr @expert_register_protocol(i32 noundef %3) #6
  tail call void @expert_register_field_array(ptr noundef %4, ptr noundef nonnull @proto_register_netbios.ei, i32 noundef 1) #6
  %5 = load i32, ptr @proto_netbios, align 4
  %6 = tail call ptr @register_dissector(ptr noundef nonnull @.str.104, ptr noundef nonnull @dissect_netbios, i32 noundef %5) #6
  store ptr %6, ptr @netbios_handle, align 8
  %7 = load i32, ptr @proto_netbios, align 4
  %8 = tail call ptr @register_capture_dissector(ptr noundef nonnull @.str.104, ptr noundef nonnull @capture_netbios, i32 noundef %7) #6
  store ptr %8, ptr @netbios_cap_handle, align 8
  %9 = load i32, ptr @proto_netbios, align 4
  %10 = tail call ptr @register_heur_dissector_list_with_description(ptr noundef nonnull @.str.104, ptr noundef nonnull @.str.105, i32 noundef %9) #6
  store ptr %10, ptr @netbios_heur_subdissector_list, align 8
  %11 = load i32, ptr @proto_netbios, align 4
  %12 = tail call ptr @prefs_register_protocol(i32 noundef %11, ptr noundef null) #6
  tail call void @prefs_register_bool_preference(ptr noundef %12, ptr noundef nonnull @.str.106, ptr noundef nonnull @.str.107, ptr noundef nonnull @.str.108, ptr noundef nonnull @netbios_defragment) #6
  tail call void @reassembly_table_register(ptr noundef nonnull @netbios_reassembly_table, ptr noundef nonnull @addresses_reassembly_table_functions) #6
  ret void
}